target datalayout = "e-m:e-p270:32:32-p271:32:32-p272:64:64-i64:64-i128:128-f80:128-n8:16:32:64-S128"
target triple = "x86_64-pc-linux-gnu"

; Function Attrs: nounwind uwtable
define internal i32 @zueci_u_gbk(i32 noundef %0, ptr noundef %1) #0 {
  %3 = alloca i32, align 4
  %4 = alloca i32, align 4
  %5 = alloca ptr, align 8
  %6 = alloca i32, align 4
  %7 = alloca i32, align 4
  %8 = alloca i32, align 4
  %9 = alloca i16, align 2
  store i32 %0, ptr %4, align 4
  store ptr %1, ptr %5, align 8
  %10 = load i32, ptr %4, align 4
  %11 = icmp ult i32 %10, 128
  br i1 %11, label %12, label %16

12:                                               ; preds = %2
  %13 = load i32, ptr %4, align 4
  %14 = trunc i32 %13 to i8
  %15 = load ptr, ptr %5, align 8
  store i8 %14, ptr %15, align 1
  store i32 1, ptr %3, align 4
  br label %116

16:                                               ; preds = %2
  %17 = load i32, ptr %4, align 4
  %18 = icmp eq i32 %17, 12539
  br i1 %18, label %19, label %20

19:                                               ; preds = %16
  store i32 0, ptr %3, align 4
  br label %116

20:                                               ; preds = %16
  %21 = load i32, ptr %4, align 4
  %22 = icmp eq i32 %21, 8213
  br i1 %22, label %23, label %28

23:                                               ; preds = %20
  %24 = load ptr, ptr %5, align 8
  %25 = getelementptr inbounds i8, ptr %24, i64 0
  store i8 -88, ptr %25, align 1
  %26 = load ptr, ptr %5, align 8
  %27 = getelementptr inbounds i8, ptr %26, i64 1
  store i8 68, ptr %27, align 1
  store i32 2, ptr %3, align 4
  br label %116

28:                                               ; preds = %20
  %29 = load i32, ptr %4, align 4
  %30 = load ptr, ptr %5, align 8
  %31 = call i32 @zueci_u_gb2312(i32 noundef %29, ptr noundef %30)
  %32 = icmp ne i32 %31, 0
  br i1 %32, label %33, label %34

33:                                               ; preds = %28
  store i32 2, ptr %3, align 4
  br label %116

34:                                               ; preds = %28
  %35 = load i32, ptr %4, align 4
  %36 = icmp uge i32 %35, 19968
  br i1 %36, label %37, label %48

37:                                               ; preds = %34
  %38 = load i32, ptr %4, align 4
  %39 = icmp ult i32 %38, 63788
  br i1 %39, label %40, label %48

40:                                               ; preds = %37
  %41 = load i32, ptr %4, align 4
  %42 = icmp uge i32 %41, 40880
  br i1 %42, label %43, label %44

43:                                               ; preds = %40
  store i32 0, ptr %3, align 4
  br label %116

44:                                               ; preds = %40
  %45 = load i32, ptr %4, align 4
  %46 = load ptr, ptr %5, align 8
  %47 = call i32 @zueci_u_lookup_uro(i32 noundef %45, ptr noundef @zueci_gbk_uro_u, ptr noundef @zueci_gbk_uro_mb_ind, ptr noundef @zueci_gbk_u_mb, ptr noundef %46)
  store i32 %47, ptr %3, align 4
  br label %116

48:                                               ; preds = %37, %34
  %49 = load i32, ptr %4, align 4
  %50 = load i16, ptr @zueci_gbk_u_u, align 16
  %51 = zext i16 %50 to i32
  %52 = icmp uge i32 %49, %51
  br i1 %52, label %53, label %115

53:                                               ; preds = %48
  %54 = load i32, ptr %4, align 4
  %55 = load i16, ptr getelementptr inbounds ([209 x i16], ptr @zueci_gbk_u_u, i64 0, i64 208), align 16
  %56 = zext i16 %55 to i32
  %57 = icmp ule i32 %54, %56
  br i1 %57, label %58, label %115

58:                                               ; preds = %53
  store i32 0, ptr %6, align 4
  store i32 208, ptr %7, align 4
  br label %59

59:                                               ; preds = %113, %58
  %60 = load i32, ptr %6, align 4
  %61 = load i32, ptr %7, align 4
  %62 = icmp sle i32 %60, %61
  br i1 %62, label %63, label %114

63:                                               ; preds = %59
  %64 = load i32, ptr %6, align 4
  %65 = load i32, ptr %7, align 4
  %66 = add nsw i32 %64, %65
  %67 = ashr i32 %66, 1
  store i32 %67, ptr %8, align 4
  %68 = load i32, ptr %8, align 4
  %69 = sext i32 %68 to i64
  %70 = getelementptr inbounds [209 x i16], ptr @zueci_gbk_u_u, i64 0, i64 %69
  %71 = load i16, ptr %70, align 2
  %72 = zext i16 %71 to i32
  %73 = load i32, ptr %4, align 4
  %74 = icmp ult i32 %72, %73
  br i1 %74, label %75, label %78

75:                                               ; preds = %63
  %76 = load i32, ptr %8, align 4
  %77 = add nsw i32 %76, 1
  store i32 %77, ptr %6, align 4
  br label %113

78:                                               ; preds = %63
  %79 = load i32, ptr %8, align 4
  %80 = sext i32 %79 to i64
  %81 = getelementptr inbounds [209 x i16], ptr @zueci_gbk_u_u, i64 0, i64 %80
  %82 = load i16, ptr %81, align 2
  %83 = zext i16 %82 to i32
  %84 = load i32, ptr %4, align 4
  %85 = icmp ugt i32 %83, %84
  br i1 %85, label %86, label %89

86:                                               ; preds = %78
  %87 = load i32, ptr %8, align 4
  %88 = sub nsw i32 %87, 1
  store i32 %88, ptr %7, align 4
  br label %112

89:                                               ; preds = %78
  %90 = load i32, ptr %4, align 4
  %91 = icmp uge i32 %90, 19968
  br i1 %91, label %92, label %95

92:                                               ; preds = %89
  %93 = load i32, ptr %8, align 4
  %94 = add nsw i32 %93, 14139
  br label %97

95:                                               ; preds = %89
  %96 = load i32, ptr %8, align 4
  br label %97

97:                                               ; preds = %95, %92
  %98 = phi i32 [ %94, %92 ], [ %96, %95 ]
  %99 = sext i32 %98 to i64
  %100 = getelementptr inbounds [14348 x i16], ptr @zueci_gbk_u_mb, i64 0, i64 %99
  %101 = load i16, ptr %100, align 2
  store i16 %101, ptr %9, align 2
  %102 = load i16, ptr %9, align 2
  %103 = zext i16 %102 to i32
  %104 = ashr i32 %103, 8
  %105 = trunc i32 %104 to i8
  %106 = load ptr, ptr %5, align 8
  %107 = getelementptr inbounds i8, ptr %106, i64 0
  store i8 %105, ptr %107, align 1
  %108 = load i16, ptr %9, align 2
  %109 = trunc i16 %108 to i8
  %110 = load ptr, ptr %5, align 8
  %111 = getelementptr inbounds i8, ptr %110, i64 1
  store i8 %109, ptr %111, align 1
  store i32 2, ptr %3, align 4
  br label %116

112:                                              ; preds = %86
  br label %113

113:                                              ; preds = %112, %75
  br label %59, !llvm.loop !14

114:                                              ; preds = %59
  br label %115

115:                                              ; preds = %114, %53, %48
  store i32 0, ptr %3, align 4
  br label %116

116:                                              ; preds = %115, %97, %44, %43, %33, %23, %19, %12
  %117 = load i32, ptr %3, align 4
  ret i32 %117
}