; Function Attrs: nofree norecurse nosync nounwind memory(argmem: readwrite) uwtable
define internal noundef i32 @zueci_u_gbk(i32 noundef %0, ptr nocapture noundef writeonly %1) #3 {
  %3 = icmp ult i32 %0, 128
  br i1 %3, label %4, label %6

4:                                                ; preds = %2
  %5 = trunc nuw nsw i32 %0 to i8
  store i8 %5, ptr %1, align 1
  br label %.loopexit

6:                                                ; preds = %2
  switch i32 %0, label %9 [
    i32 12539, label %.loopexit
    i32 8213, label %7
  ]

7:                                                ; preds = %6
  store i8 -88, ptr %1, align 1
  %8 = getelementptr inbounds i8, ptr %1, i64 1
  store i8 68, ptr %8, align 1
  br label %.loopexit

9:                                                ; preds = %6
  %10 = tail call i32 @zueci_u_gb2312(i32 noundef %0, ptr noundef %1), !range !15
  %.not = icmp eq i32 %10, 0
  br i1 %.not, label %11, label %.loopexit

11:                                               ; preds = %9
  %12 = icmp ugt i32 %0, 19967
  %13 = add i32 %0, -19968
  %or.cond = icmp ult i32 %13, 43820
  br i1 %or.cond, label %14, label %18

14:                                               ; preds = %11
  %15 = icmp ugt i32 %0, 40879
  br i1 %15, label %.loopexit, label %16

16:                                               ; preds = %14
  %17 = tail call fastcc i32 @zueci_u_lookup_uro(i32 noundef %0, ptr noundef nonnull @zueci_gbk_uro_u, ptr noundef nonnull @zueci_gbk_uro_mb_ind, ptr noundef nonnull @zueci_gbk_u_mb, ptr noundef %1), !range !15
  br label %.loopexit

18:                                               ; preds = %11
  %19 = add i32 %0, -183
  %or.cond41 = icmp ult i32 %19, 65326
  br i1 %or.cond41, label %.preheader, label %.loopexit

.preheader:                                       ; preds = %18, %43
  %.03443 = phi i32 [ %.1, %43 ], [ 0, %18 ]
  %.03542 = phi i32 [ %.136, %43 ], [ 208, %18 ]
  %20 = add nsw i32 %.03443, %.03542
  %21 = ashr i32 %20, 1
  %22 = sext i32 %21 to i64
  %23 = getelementptr inbounds [209 x i16], ptr @zueci_gbk_u_u, i64 0, i64 %22
  %24 = load i16, ptr %23, align 2
  %25 = zext i16 %24 to i32
  %26 = icmp ult i32 %25, %0
  br i1 %26, label %27, label %29

27:                                               ; preds = %.preheader
  %28 = add nsw i32 %21, 1
  br label %43

29:                                               ; preds = %.preheader
  %30 = icmp ugt i32 %25, %0
  br i1 %30, label %31, label %33

31:                                               ; preds = %29
  %32 = add nsw i32 %21, -1
  br label %43

33:                                               ; preds = %29
  %34 = add nsw i32 %21, 14139
  %35 = select i1 %12, i32 %34, i32 %21
  %36 = sext i32 %35 to i64
  %37 = getelementptr inbounds [14348 x i16], ptr @zueci_gbk_u_mb, i64 0, i64 %36
  %38 = load i16, ptr %37, align 2
  %39 = lshr i16 %38, 8
  %40 = trunc nuw i16 %39 to i8
  store i8 %40, ptr %1, align 1
  %41 = trunc i16 %38 to i8
  %42 = getelementptr inbounds i8, ptr %1, i64 1
  store i8 %41, ptr %42, align 1
  br label %.loopexit

43:                                               ; preds = %31, %27
  %.136 = phi i32 [ %.03542, %27 ], [ %32, %31 ]
  %.1 = phi i32 [ %28, %27 ], [ %.03443, %31 ]
  %.not40 = icmp sgt i32 %.1, %.136
  br i1 %.not40, label %.loopexit, label %.preheader, !llvm.loop !16

.loopexit:                                        ; preds = %43, %18, %14, %9, %6, %33, %16, %7, %4
  %.0 = phi i32 [ 1, %4 ], [ 2, %7 ], [ %17, %16 ], [ 2, %33 ], [ 0, %6 ], [ 2, %9 ], [ 0, %14 ], [ 0, %18 ], [ 0, %43 ]
  ret i32 %.0
}